target datalayout = "e-m:e-p270:32:32-p271:32:32-p272:64:64-i64:64-i128:128-f80:128-n8:16:32:64-S128"
target triple = "x86_64-pc-linux-gnu"

%struct.AVFilterContext = type { ptr, ptr, ptr, ptr, ptr, i32, ptr, ptr, i32, ptr, ptr, i32, i32, ptr, ptr, ptr, ptr, i32, ptr, i32, i32 }
%struct.VAAPIVPPContext = type { ptr, ptr, ptr, i32, i32, i32, ptr, ptr, %struct._VARectangle, i32, i32, i32, [10 x i32], i32, i32, ptr, ptr }
%struct._VARectangle = type { i16, i16, i16, i16 }
%struct.DeintVAAPIContext = type { %struct.VAAPIVPPContext, i32, i32, i32, [5 x %struct._VAProcFilterCapDeinterlacing], i32, %struct._VAProcPipelineCaps, i32, i32, [8 x ptr], i32, i32, i32 }
%struct._VAProcFilterCapDeinterlacing = type { i32, [4 x i32] }
%struct._VAProcPipelineCaps = type { i32, i32, i32, i32, ptr, i32, ptr, i32, i32, i32, i32, i32, i32, ptr, i32, ptr, i32, i32, i32, i32, i32, i32, i32, i32, [14 x i32] }

; Function Attrs: nounwind uwtable
define internal void @deint_vaapi_pipeline_uninit(ptr noundef %0) #2 {
  %2 = alloca ptr, align 8
  %3 = alloca ptr, align 8
  %4 = alloca i32, align 4
  store ptr %0, ptr %2, align 8, !tbaa !4
  call void @llvm.lifetime.start.p0(i64 8, ptr %3) #7
  %5 = load ptr, ptr %2, align 8, !tbaa !4
  %6 = getelementptr inbounds nuw %struct.AVFilterContext, ptr %5, i32 0, i32 9
  %7 = load ptr, ptr %6, align 8, !tbaa !9
  store ptr %7, ptr %3, align 8, !tbaa !45
  call void @llvm.lifetime.start.p0(i64 4, ptr %4) #7
  store i32 0, ptr %4, align 4, !tbaa !62
  br label %8

8:                                                ; preds = %20, %1
  %9 = load i32, ptr %4, align 4, !tbaa !62
  %10 = load ptr, ptr %3, align 8, !tbaa !45
  %11 = getelementptr inbounds nuw %struct.DeintVAAPIContext, ptr %10, i32 0, i32 8
  %12 = load i32, ptr %11, align 4, !tbaa !57
  %13 = icmp slt i32 %9, %12
  br i1 %13, label %14, label %23

14:                                               ; preds = %8
  %15 = load ptr, ptr %3, align 8, !tbaa !45
  %16 = getelementptr inbounds nuw %struct.DeintVAAPIContext, ptr %15, i32 0, i32 9
  %17 = load i32, ptr %4, align 4, !tbaa !62
  %18 = sext i32 %17 to i64
  %19 = getelementptr inbounds [8 x ptr], ptr %16, i64 0, i64 %18
  call void @av_frame_free(ptr noundef %19)
  br label %20

20:                                               ; preds = %14
  %21 = load i32, ptr %4, align 4, !tbaa !62
  %22 = add nsw i32 %21, 1
  store i32 %22, ptr %4, align 4, !tbaa !62
  br label %8, !llvm.loop !106

23:                                               ; preds = %8
  %24 = load ptr, ptr %3, align 8, !tbaa !45
  %25 = getelementptr inbounds nuw %struct.DeintVAAPIContext, ptr %24, i32 0, i32 8
  store i32 0, ptr %25, align 4, !tbaa !57
  %26 = load ptr, ptr %2, align 8, !tbaa !4
  call void @ff_vaapi_vpp_pipeline_uninit(ptr noundef %26)
  call void @llvm.lifetime.end.p0(i64 4, ptr %4) #7
  call void @llvm.lifetime.end.p0(i64 8, ptr %3) #7
  ret void
}