; Function Attrs: nounwind uwtable
define internal void @deint_vaapi_pipeline_uninit(ptr noundef %0) #2 {
  %2 = getelementptr inbounds nuw i8, ptr %0, i64 72
  %3 = load ptr, ptr %2, align 8, !tbaa !4
  %4 = getelementptr inbounds nuw i8, ptr %3, i64 444
  %5 = load i32, ptr %4, align 4, !tbaa !50
  %6 = icmp sgt i32 %5, 0
  br i1 %6, label %.lr.ph, label %._crit_edge

.lr.ph:                                           ; preds = %1
  %7 = getelementptr inbounds nuw i8, ptr %3, i64 448
  br label %8

8:                                                ; preds = %.lr.ph, %8
  %indvars.iv = phi i64 [ 0, %.lr.ph ], [ %indvars.iv.next, %8 ]
  %9 = getelementptr inbounds nuw [8 x ptr], ptr %7, i64 0, i64 %indvars.iv
  tail call void @av_frame_free(ptr noundef nonnull %9) #6
  %indvars.iv.next = add nuw nsw i64 %indvars.iv, 1
  %10 = load i32, ptr %4, align 4, !tbaa !50
  %11 = sext i32 %10 to i64
  %12 = icmp slt i64 %indvars.iv.next, %11
  br i1 %12, label %8, label %._crit_edge, !llvm.loop !93

._crit_edge:                                      ; preds = %8, %1
  store i32 0, ptr %4, align 4, !tbaa !50
  tail call void @ff_vaapi_vpp_pipeline_uninit(ptr noundef nonnull %0) #6
  ret void
}